; Function Attrs: mustprogress uwtable
define noundef nonnull align 8 dereferenceable(16) ptr @_ZN2cv4gapi4onnx8PyParams23cfgAddExecutionProviderENS1_2ep8DirectMLE(ptr noundef nonnull readonly returned align 8 dereferenceable(16) %0, ptr noundef %1) local_unnamed_addr #3 align 2 personality ptr @__gxx_personality_v0 {
  %3 = alloca %"struct.std::array.91", align 8
  %4 = load ptr, ptr %0, align 8, !tbaa !6
  %5 = getelementptr inbounds nuw i8, ptr %4, i64 496
  %6 = load ptr, ptr %5, align 8, !tbaa !26
  %7 = getelementptr inbounds nuw i8, ptr %4, i64 504
  %8 = load ptr, ptr %7, align 8, !tbaa !29
  %.not.i.i = icmp eq ptr %6, %8
  br i1 %.not.i.i, label %22, label %9

9:                                                ; preds = %2
  store i64 2, ptr %6, align 8, !tbaa !30
  %10 = getelementptr inbounds nuw i8, ptr %6, i64 8
  %11 = load i64, ptr %1, align 8, !tbaa !33
  store i64 %11, ptr %10, align 8, !tbaa !33
  call void @llvm.lifetime.start.p0(i64 16, ptr nonnull %3) #25
  store ptr @_ZN2cv4util7variantIJiNSt7__cxx1112basic_stringIcSt11char_traitsIcESaIcEEEEE6mctr_hIiE4helpEPNSt15aligned_storageILm32ELm8EE4typeEPv, ptr %3, align 8
  %12 = getelementptr inbounds nuw i8, ptr %3, i64 8
  store ptr @_ZN2cv4util7variantIJiNSt7__cxx1112basic_stringIcSt11char_traitsIcESaIcEEEEE6mctr_hIS7_E4helpEPNSt15aligned_storageILm32ELm8EE4typeEPv, ptr %12, align 8
  %13 = getelementptr inbounds nuw [2 x ptr], ptr %3, i64 0, i64 %11
  %14 = load ptr, ptr %13, align 8, !tbaa !35
  %15 = getelementptr inbounds nuw i8, ptr %6, i64 16
  %16 = getelementptr inbounds nuw i8, ptr %1, i64 8
  invoke void %14(ptr noundef nonnull %15, ptr noundef nonnull %16)
          to label %_ZNSt16allocator_traitsISaIN2cv4util7variantIJNS1_9monostateENS0_4gapi4onnx2ep8OpenVINOENS6_8DirectMLENS6_6CoreMLENS6_4CUDAENS6_8TensorRTEEEEEE9constructISC_JS8_EEEvRSD_PT_DpOT0_.exit.i.i unwind label %17

17:                                               ; preds = %9
  %18 = landingpad { ptr, i32 }
          catch ptr null
  %19 = extractvalue { ptr, i32 } %18, 0
  tail call void @__clang_call_terminate(ptr %19) #26
  unreachable

_ZNSt16allocator_traitsISaIN2cv4util7variantIJNS1_9monostateENS0_4gapi4onnx2ep8OpenVINOENS6_8DirectMLENS6_6CoreMLENS6_4CUDAENS6_8TensorRTEEEEEE9constructISC_JS8_EEEvRSD_PT_DpOT0_.exit.i.i: ; preds = %9
  call void @llvm.lifetime.end.p0(i64 16, ptr nonnull %3) #25
  %20 = load ptr, ptr %5, align 8, !tbaa !26
  %21 = getelementptr inbounds nuw i8, ptr %20, i64 136
  store ptr %21, ptr %5, align 8, !tbaa !26
  br label %_ZN2cv4gapi4onnx6ParamsINS0_7GenericEE23cfgAddExecutionProviderEONS1_2ep8DirectMLE.exit

22:                                               ; preds = %2
  %23 = getelementptr inbounds nuw i8, ptr %4, i64 488
  tail call void @_ZNSt6vectorIN2cv4util7variantIJNS1_9monostateENS0_4gapi4onnx2ep8OpenVINOENS6_8DirectMLENS6_6CoreMLENS6_4CUDAENS6_8TensorRTEEEESaISC_EE17_M_realloc_insertIJS8_EEEvN9__gnu_cxx17__normal_iteratorIPSC_SE_EEDpOT_(ptr noundef nonnull align 8 dereferenceable(24) %23, ptr %6, ptr noundef nonnull align 8 dereferenceable(40) %1)
  br label %_ZN2cv4gapi4onnx6ParamsINS0_7GenericEE23cfgAddExecutionProviderEONS1_2ep8DirectMLE.exit

_ZN2cv4gapi4onnx6ParamsINS0_7GenericEE23cfgAddExecutionProviderEONS1_2ep8DirectMLE.exit: ; preds = %_ZNSt16allocator_traitsISaIN2cv4util7variantIJNS1_9monostateENS0_4gapi4onnx2ep8OpenVINOENS6_8DirectMLENS6_6CoreMLENS6_4CUDAENS6_8TensorRTEEEEEE9constructISC_JS8_EEEvRSD_PT_DpOT0_.exit.i.i, %22
  ret ptr %0
}